Certificate:
    Data:
        Version: 3 (0x2)
        Serial Number: 1 (0x1)
    Signature Algorithm: sha256WithRSAEncryption
        Issuer: C=US, ST=Maryland, L=Baltimore, O=Test CA, Limited, OU=Server Research Department, CN=Test CA/emailAddress=test@example.com
        Validity
            Not Before: Jul 18 11:54:20 2019 GMT
            Not After : Apr 13 11:54:20 2022 GMT
        Subject: C=US, ST=MD, L=Baltimore, O=Test Server, Limited, CN=Test Server
        Subject Public Key Info:
            Public Key Algorithm: rsaEncryption
                Public-Key: (2048 bit)
                Modulus:
                    00:de:2e:29:dd:bc:58:94:d8:c8:c6:0f:a1:ad:36:
                    e8:64:5c:22:9f:48:a4:87:93:dc:9c:ae:24:78:be:
                    64:b2:71:86:3e:ed:b4:dc:82:c0:4f:84:75:a0:a8:
                    4d:b0:fc:f5:00:93:2d:84:66:eb:bf:71:b3:1a:99:
                    b1:4e:46:78:6c:bc:0b:d7:92:13:7e:32:7e:4c:68:
                    bf:57:57:ef:9e:13:1d:01:ce:cf:fd:50:bb:4a:ee:
                    45:c3:c6:fa:34:f7:27:bd:8c:57:27:ba:97:61:65:
                    89:9c:6b:38:8d:92:34:9c:59:df:aa:60:8d:b7:8e:
                    de:25:4f:df:08:38:a6:e0:6a:75:80:0d:8a:7b:35:
                    e6:3d:57:c0:e4:40:6f:dd:df:0b:4d:13:db:12:6a:
                    82:0a:54:01:23:f1:59:1f:3d:af:bc:4f:bc:04:d6:
                    bb:64:1b:b4:aa:90:f2:b7:30:f3:dd:70:22:b1:05:
                    bf:c8:0f:e3:59:46:a9:a9:d8:bb:d5:2a:c8:04:4d:
                    f2:e1:e9:37:d5:2f:96:f4:e3:29:5e:dc:bb:2a:4f:
                    f4:0f:d8:e3:9c:19:4c:34:3d:f9:8e:da:09:b9:4d:
                    46:20:2d:dd:b9:88:91:90:8e:73:91:eb:3d:ce:1e:
                    56:5a:18:07:a9:d5:a8:47:c2:ad:f5:52:c2:21:28:
                    5a:69
                Exponent: 65537 (0x10001)
        X509v3 extensions:
            X509v3 Subject Key Identifier: 
                20:50:C8:5E:3E:FF:CB:19:92:24:EA:4D:91:CF:AD:31:61:4A:E0:1B
            X509v3 Authority Key Identifier: 
                keyid:E2:78:EF:15:3D:23:A0:BB:D2:F1:1D:53:5C:5E:62:28:0A:86:91:BE

            X509v3 Basic Constraints: 
                CA:FALSE
            X509v3 Key Usage: 
                Digital Signature, Key Encipherment
            X509v3 Subject Alternative Name: 
                DNS:example.com, DNS:www.example.com, DNS:mail.example.com, DNS:ftp.example.com
            Netscape Comment: 
                OpenSSL Generated Certificate
    Signature Algorithm: sha256WithRSAEncryption
         24:4c:2a:98:72:c8:23:61:ea:25:1c:cb:89:e6:34:ae:e1:5a:
         e8:40:f9:8e:d6:ae:2c:0c:75:00:ce:43:b9:fe:5e:88:1f:77:
         7f:c9:ec:b1:28:67:a9:2d:1f:f4:c7:fd:2f:54:86:ab:77:16:
         17:5b:bc:db:22:0b:d5:f7:58:ee:e2:61:7f:61:6b:92:51:84:
         ae:15:43:1f:1e:8e:79:74:e9:3e:51:4d:3c:8e:03:8e:71:84:
         51:1d:81:da:ae:da:00:af:db:8d:73:17:7a:5f:86:46:a9:4e:
         b0:da:cf:76:d5:4c:a4:d5:f3:c6:7a:77:89:f7:a5:6e:ca:fb:
         b1:9d:d4:b5:2d:19:59:5e:94:ad:f3:d4:91:5b:f5:ed:c5:a5:
         0e:27:88:10:e8:76:e7:67:c4:80:82:fa:14:41:9a:ac:c0:31:
         c9:31:d3:23:27:0b:fa:9c:3c:19:1c:d0:c7:d1:aa:5f:0d:85:
         47:71:56:aa:3f:56:2b:a9:1b:52:79:36:7f:62:13:6d:ae:30:
         7c:3a:8e:65:56:9b:ff:15:b3:28:70:3e:aa:4e:74:80:65:34:
         39:d9:10:9b:ff:e6:bf:50:e1:18:22:cb:17:65:61:83:7c:39:
         a2:f8:e9:64:c2:6f:6a:5e:0d:e6:91:6c:2b:06:a4:14:b9:cb:
         1d:55:39:df:22:28:ca:48:fa:fa:b6:5d:dd:ef:ae:84:99:66:
         6f:b5:0c:7e:af:f2:94:78:51:4b:0c:c1:4a:0f:ff:d1:69:15:
         33:89:3a:1f:4f:68:ed:2e:bf:be:c9:f7:e9:c3:51:b5:6e:a5:
         68:87:b7:63:58:1f:be:95:a7:d5:7e:39:52:de:c4:d8:1a:c3:
         bf:da:5c:bd:0f:91:48:9e:45:c9:34:e7:1a:38:d8:ca:3a:58:
         01:5e:96:bb:86:85:ad:5b:93:7c:9f:2f:bb:1d:f7:cf:4a:52:
         f6:f1:ec:da:07:5e:63:96:05:b0:31:60:08:3e:1b:99:98:d4:
         c9:c2:fe:32:98:87:ba:e0:62:78:61:eb:54:97:91:60:ba:e5:
         0c:14:74:70:4b:16:f0:d4:26:7e:e3:0d:19:47:9a:1b:22:7e:
         df:bb:f1:c6:4c:24:3d:36:00:51:92:b6:34:91:51:5f:70:70:
         99:f0:de:dd:79:b8:5a:de:d3:ac:21:55:1e:b3:be:b4:fb:86:
         cc:4d:0a:fd:c5:df:cc:b7:6c:8c:06:17:f4:6c:a3:89:1e:df:
         f4:08:9a:a0:45:61:03:68:9b:8f:3b:e5:93:37:6b:61:78:58:
         96:d6:d4:15:05:76:d6:e3:0a:c6:9c:b0:af:6e:22:96:f5:1f:
         85:42:7c:b3:b3:53:f7:69
-----BEGIN CERTIFICATE-----
MIIFXDCCA0SgAwIBAgIBATANBgkqhkiG9w0BAQsFADCBpzELMAkGA1UEBhMCVVMx
ETAPBgNVBAgMCE1hcnlsYW5kMRIwEAYDVQQHDAlCYWx0aW1vcmUxGTAXBgNVBAoM
EFRlc3QgQ0EsIExpbWl0ZWQxIzAhBgNVBAsMGlNlcnZlciBSZXNlYXJjaCBEZXBh
cnRtZW50MRAwDgYDVQQDDAdUZXN0IENBMR8wHQYJKoZIhvcNAQkBFhB0ZXN0QGV4
YW1wbGUuY29tMB4XDTE5MDcxODExNTQyMFoXDTIyMDQxMzExNTQyMFowYzELMAkG
A1UEBhMCVVMxCzAJBgNVBAgMAk1EMRIwEAYDVQQHDAlCYWx0aW1vcmUxHTAbBgNV
BAoMFFRlc3QgU2VydmVyLCBMaW1pdGVkMRQwEgYDVQQDDAtUZXN0IFNlcnZlcjCC
ASIwDQYJKoZIhvcNAQEBBQADggEPADCCAQoCggEBAN4uKd28WJTYyMYPoa026GRc
Ip9IpIeT3JyuJHi+ZLJxhj7ttNyCwE+EdaCoTbD89QCTLYRm679xsxqZsU5GeGy8
C9eSE34yfkxov1dX754THQHOz/1Qu0ruRcPG+jT3J72MVye6l2FliZxrOI2SNJxZ
36pgjbeO3iVP3wg4puBqdYANins15j1XwORAb93fC00T2xJqggpUASPxWR89r7xP
vATWu2QbtKqQ8rcw891wIrEFv8gP41lGqanYu9UqyARN8uHpN9UvlvTjKV7cuypP
9A/Y45wZTDQ9+Y7aCblNRiAt3bmIkZCOc5HrPc4eVloYB6nVqEfCrfVSwiEoWmkC
AwEAAaOB1TCB0jAdBgNVHQ4EFgQUIFDIXj7/yxmSJOpNkc+tMWFK4BswHwYDVR0j
BBgwFoAU4njvFT0joLvS8R1TXF5iKAqGkb4wCQYDVR0TBAIwADALBgNVHQ8EBAMC
BaAwSgYDVR0RBEMwQYILZXhhbXBsZS5jb22CD3d3dy5leGFtcGxlLmNvbYIQbWFp
bC5leGFtcGxlLmNvbYIPZnRwLmV4YW1wbGUuY29tMCwGCWCGSAGG+EIBDQQfFh1P
cGVuU1NMIEdlbmVyYXRlZCBDZXJ0aWZpY2F0ZTANBgkqhkiG9w0BAQsFAAOCAgEA
JEwqmHLII2HqJRzLieY0ruFa6ED5jtauLAx1AM5Duf5eiB93f8nssShnqS0f9Mf9
L1SGq3cWF1u82yIL1fdY7uJhf2FrklGErhVDHx6OeXTpPlFNPI4DjnGEUR2B2q7a
AK/bjXMXel+GRqlOsNrPdtVMpNXzxnp3ifelbsr7sZ3UtS0ZWV6UrfPUkVv17cWl
DieIEOh252fEgIL6FEGarMAxyTHTIycL+pw8GRzQx9GqXw2FR3FWqj9WK6kbUnk2
f2ITba4wfDqOZVab/xWzKHA+qk50gGU0OdkQm//mv1DhGCLLF2Vhg3w5ovjpZMJv
al4N5pFsKwakFLnLHVU53yIoykj6+rZd3e+uhJlmb7UMfq/ylHhRSwzBSg//0WkV
M4k6H09o7S6/vsn36cNRtW6laIe3Y1gfvpWn1X45Ut7E2BrDv9pcvQ+RSJ5FyTTn
GjjYyjpYAV6Wu4aFrVuTfJ8vux33z0pS9vHs2gdeY5YFsDFgCD4bmZjUycL+MpiH
uuBieGHrVJeRYLrlDBR0cEsW8NQmfuMNGUeaGyJ+37vxxkwkPTYAUZK2NJFRX3Bw
mfDe3Xm4Wt7TrCFVHrO+tPuGzE0K/cXfzLdsjAYX9GyjiR7f9AiaoEVhA2ibjzvl
kzdrYXhYltbUFQV21uMKxpywr24ilvUfhUJ8s7NT92k=
-----END CERTIFICATE-----
