Certificate:
    Data:
        Version: 3 (0x2)
        Serial Number: 1 (0x1)
    Signature Algorithm: sha256WithRSAEncryption
        Issuer: C=US, ST=Maryland, L=Baltimore, O=Test CA, Limited, OU=Server Research Department, CN=Test CA/emailAddress=test@example.com
        Validity
            Not Before: Jul 18 11:54:25 2019 GMT
            Not After : Apr 13 11:54:25 2022 GMT
        Subject: C=US, ST=MD, L=Baltimore, O=Test Server, Limited, CN=Test Server
        Subject Public Key Info:
            Public Key Algorithm: rsaEncryption
                Public-Key: (2048 bit)
                Modulus:
                    00:df:37:f6:a4:92:a3:a5:bb:e6:6d:30:56:0f:67:
                    a7:5a:46:b7:6b:e9:c0:d3:91:ea:a8:bc:56:1b:f6:
                    11:9f:2d:c9:06:a3:cc:b2:87:6c:8e:db:ca:d0:91:
                    e6:90:bb:e5:95:3d:d4:ff:14:05:46:f4:ec:79:05:
                    e8:aa:04:bc:c1:2e:fd:5c:8f:18:1b:37:08:8c:e2:
                    ed:f0:0c:09:32:64:1f:67:77:51:bf:c9:61:e3:ef:
                    c7:f9:52:11:40:4c:f9:89:90:29:00:1c:02:79:67:
                    72:c2:f5:58:ba:cf:f5:c8:e2:8b:c1:52:cf:53:0a:
                    03:e7:df:a4:42:f1:9b:e6:76:ac:fd:94:4a:4e:61:
                    06:ba:4f:59:b0:99:b5:10:ce:0f:d1:1b:48:7c:48:
                    82:24:a5:6d:30:c7:7e:a7:78:d1:8a:b0:bd:12:b5:
                    52:c9:99:40:c1:6b:f4:e0:11:ce:af:c7:99:a9:79:
                    0d:f2:f4:8e:08:bc:76:27:5a:05:d8:77:ef:12:a1:
                    90:d3:1a:96:2a:8a:8b:d2:a1:65:d4:19:3d:4c:d1:
                    3b:f6:1c:5f:df:16:9f:b7:53:d9:ae:89:75:b5:26:
                    38:95:9f:a5:c3:da:92:37:f1:3b:9b:f2:8f:58:04:
                    8c:9f:ea:d6:56:3b:c1:d3:32:3e:6c:27:df:e8:7b:
                    f9:97
                Exponent: 65537 (0x10001)
        X509v3 extensions:
            X509v3 Subject Key Identifier: 
                FF:06:A4:05:0C:E4:A3:79:2A:4B:83:8D:63:47:86:CF:77:CC:02:9C
            X509v3 Authority Key Identifier: 
                keyid:E2:78:EF:15:3D:23:A0:BB:D2:F1:1D:53:5C:5E:62:28:0A:86:91:BE

            X509v3 Basic Constraints: 
                CA:FALSE
            X509v3 Key Usage: 
                Digital Signature, Key Encipherment
            X509v3 Subject Alternative Name: 
                DNS:example.com, DNS:www.example.com, DNS:mail.example.com, DNS:ftp.example.com
            Netscape Comment: 
                OpenSSL Generated Certificate
    Signature Algorithm: sha256WithRSAEncryption
         08:e7:d1:75:55:27:08:3b:b8:48:09:ff:c1:41:c9:01:8f:e0:
         fd:cd:b1:98:17:bb:b0:b7:db:7c:08:e7:20:5a:2f:97:f5:b4:
         ef:9d:b7:93:ed:74:3f:cf:81:27:5b:a7:98:f3:fb:9c:2d:4e:
         f3:2a:a2:11:f4:3d:a2:68:28:9a:97:e1:ce:a1:e8:00:7c:b7:
         70:ff:69:e6:c4:a7:6c:81:9a:f5:0c:0c:4e:5a:bc:7c:38:1f:
         17:25:d0:8a:fd:67:ed:25:13:84:82:0f:83:dd:65:47:87:9a:
         db:f8:ad:09:8f:2c:c6:19:39:08:32:67:66:c6:ba:8a:ba:1b:
         6b:94:f4:46:3f:6c:f2:03:12:aa:3c:dd:3f:55:74:0f:a2:7e:
         39:45:04:e4:f8:b8:4b:0b:6d:a6:5b:02:0c:19:40:0f:5b:38:
         9e:50:3c:d5:f4:53:17:b0:f5:4a:65:28:15:49:b1:a3:8c:55:
         a2:f9:a2:ff:99:39:45:38:6b:d1:f6:8d:ee:c4:31:9d:98:f0:
         eb:9f:10:7d:da:f3:c4:8c:fc:4a:3f:79:17:b2:b2:87:c0:bd:
         25:60:76:dc:ad:5b:89:cb:f9:ca:0c:31:28:54:7b:21:24:e4:
         c6:2d:ab:73:e7:01:4a:b4:39:df:41:5f:2b:98:17:80:36:8d:
         8b:ab:f3:88:e6:a1:36:d4:28:3c:29:c9:de:89:f1:20:e2:bb:
         50:e3:87:40:12:9d:ca:83:6d:25:a5:f4:71:ec:e8:7f:5e:3b:
         1e:75:28:27:1d:e6:48:23:7a:a5:ad:ea:15:87:e7:d9:32:80:
         ea:5e:7b:e6:9c:f4:9d:ca:e2:be:8b:82:ed:b0:2a:cd:33:f0:
         a4:da:15:a5:7b:57:94:9e:e9:ac:72:ce:31:f6:63:77:e5:af:
         a5:eb:50:a1:b6:64:52:72:0a:80:7d:70:b3:60:04:26:fc:55:
         e5:8b:80:b3:56:bb:72:a9:6d:56:cf:5c:2b:cb:34:d9:5a:29:
         13:41:c9:be:54:98:5c:96:a8:51:cd:5d:f8:2d:15:26:94:bb:
         62:a0:70:34:4e:26:69:60:2f:ae:6a:a9:49:b7:b2:79:66:89:
         99:ee:fa:24:04:e3:50:29:5e:7a:6a:6a:ad:af:c4:28:e9:08:
         c4:a1:ab:1d:78:fa:51:ee:b4:7b:3d:36:c3:27:4e:4a:05:df:
         b6:ec:31:c5:b0:19:2c:78:26:53:7c:0f:c2:92:9c:17:72:e5:
         15:d6:c7:b5:6c:00:3b:35:c9:8e:a2:f9:5e:ec:4b:7a:e5:87:
         4b:ac:36:29:78:e4:0b:3c:3e:b2:09:9e:32:9a:40:b2:90:46:
         ad:73:0f:08:aa:ae:a5:2b
-----BEGIN CERTIFICATE-----
MIIFXDCCA0SgAwIBAgIBATANBgkqhkiG9w0BAQsFADCBpzELMAkGA1UEBhMCVVMx
ETAPBgNVBAgMCE1hcnlsYW5kMRIwEAYDVQQHDAlCYWx0aW1vcmUxGTAXBgNVBAoM
EFRlc3QgQ0EsIExpbWl0ZWQxIzAhBgNVBAsMGlNlcnZlciBSZXNlYXJjaCBEZXBh
cnRtZW50MRAwDgYDVQQDDAdUZXN0IENBMR8wHQYJKoZIhvcNAQkBFhB0ZXN0QGV4
YW1wbGUuY29tMB4XDTE5MDcxODExNTQyNVoXDTIyMDQxMzExNTQyNVowYzELMAkG
A1UEBhMCVVMxCzAJBgNVBAgMAk1EMRIwEAYDVQQHDAlCYWx0aW1vcmUxHTAbBgNV
BAoMFFRlc3QgU2VydmVyLCBMaW1pdGVkMRQwEgYDVQQDDAtUZXN0IFNlcnZlcjCC
ASIwDQYJKoZIhvcNAQEBBQADggEPADCCAQoCggEBAN839qSSo6W75m0wVg9np1pG
t2vpwNOR6qi8Vhv2EZ8tyQajzLKHbI7bytCR5pC75ZU91P8UBUb07HkF6KoEvMEu
/VyPGBs3CIzi7fAMCTJkH2d3Ub/JYePvx/lSEUBM+YmQKQAcAnlncsL1WLrP9cji
i8FSz1MKA+ffpELxm+Z2rP2USk5hBrpPWbCZtRDOD9EbSHxIgiSlbTDHfqd40Yqw
vRK1UsmZQMFr9OARzq/Hmal5DfL0jgi8didaBdh37xKhkNMaliqKi9KhZdQZPUzR
O/YcX98Wn7dT2a6JdbUmOJWfpcPakjfxO5vyj1gEjJ/q1lY7wdMyPmwn3+h7+ZcC
AwEAAaOB1TCB0jAdBgNVHQ4EFgQU/wakBQzko3kqS4ONY0eGz3fMApwwHwYDVR0j
BBgwFoAU4njvFT0joLvS8R1TXF5iKAqGkb4wCQYDVR0TBAIwADALBgNVHQ8EBAMC
BaAwSgYDVR0RBEMwQYILZXhhbXBsZS5jb22CD3d3dy5leGFtcGxlLmNvbYIQbWFp
bC5leGFtcGxlLmNvbYIPZnRwLmV4YW1wbGUuY29tMCwGCWCGSAGG+EIBDQQfFh1P
cGVuU1NMIEdlbmVyYXRlZCBDZXJ0aWZpY2F0ZTANBgkqhkiG9w0BAQsFAAOCAgEA
COfRdVUnCDu4SAn/wUHJAY/g/c2xmBe7sLfbfAjnIFovl/W07523k+10P8+BJ1un
mPP7nC1O8yqiEfQ9omgompfhzqHoAHy3cP9p5sSnbIGa9QwMTlq8fDgfFyXQiv1n
7SUThIIPg91lR4ea2/itCY8sxhk5CDJnZsa6iroba5T0Rj9s8gMSqjzdP1V0D6J+
OUUE5Pi4SwttplsCDBlAD1s4nlA81fRTF7D1SmUoFUmxo4xVovmi/5k5RThr0faN
7sQxnZjw658QfdrzxIz8Sj95F7Kyh8C9JWB23K1bicv5ygwxKFR7ISTkxi2rc+cB
SrQ530FfK5gXgDaNi6vziOahNtQoPCnJ3onxIOK7UOOHQBKdyoNtJaX0cezof147
HnUoJx3mSCN6pa3qFYfn2TKA6l575pz0ncrivouC7bAqzTPwpNoVpXtXlJ7prHLO
MfZjd+WvpetQobZkUnIKgH1ws2AEJvxV5YuAs1a7cqltVs9cK8s02VopE0HJvlSY
XJaoUc1d+C0VJpS7YqBwNE4maWAvrmqpSbeyeWaJme76JATjUCleempqra/EKOkI
xKGrHXj6Ue60ez02wydOSgXftuwxxbAZLHgmU3wPwpKcF3LlFdbHtWwAOzXJjqL5
XuxLeuWHS6w2KXjkCzw+sgmeMppAspBGrXMPCKqupSs=
-----END CERTIFICATE-----
